target datalayout = "e-m:e-p270:32:32-p271:32:32-p272:64:64-i64:64-i128:128-f80:128-n8:16:32:64-S128"
target triple = "x86_64-pc-linux-gnu"

%struct.EphemeralNamedRelationData = type { %struct.EphemeralNamedRelationMetadataData, ptr }
%struct.EphemeralNamedRelationMetadataData = type { ptr, i32, ptr, i32, double }
%struct.ForEachState = type { ptr, i32 }
%struct.QueryEnvironment = type { ptr }
%struct.List = type { i32, i32, i32, ptr, [0 x %union.ListCell] }
%union.ListCell = type { ptr }
%struct.RelationData = type { %struct.RelFileLocator, ptr, i32, i32, i8, i8, i8, i8, i8, i32, i32, i32, i32, ptr, ptr, i32, %struct.LockInfoData, ptr, ptr, ptr, ptr, ptr, i8, ptr, ptr, ptr, ptr, ptr, ptr, i32, ptr, i8, ptr, ptr, i32, i8, i32, ptr, i8, ptr, ptr, ptr, ptr, ptr, ptr, ptr, i32, ptr, ptr, ptr, ptr, ptr, ptr, ptr, ptr, ptr, ptr, ptr, ptr, ptr, ptr, ptr, ptr, ptr, ptr, ptr, i32, i8, ptr }
%struct.RelFileLocator = type { i32, i32, i32 }
%struct.LockInfoData = type { %struct.LockRelId }
%struct.LockRelId = type { i32, i32 }

; Function Attrs: nounwind uwtable
define dso_local ptr @create_queryEnv() #0 {
  %1 = call ptr @palloc0(i64 noundef 8)
  ret ptr %1
}

declare ptr @palloc0(i64 noundef) #1

; Function Attrs: nounwind uwtable
define dso_local ptr @get_visible_ENR_metadata(ptr noundef %0, ptr noundef %1) #0 {
  %3 = alloca ptr, align 8
  %4 = alloca ptr, align 8
  %5 = alloca ptr, align 8
  %6 = alloca ptr, align 8
  %7 = alloca i32, align 4
  store ptr %0, ptr %4, align 8
  store ptr %1, ptr %5, align 8
  call void @llvm.lifetime.start.p0(i64 8, ptr %6) #5
  %8 = load ptr, ptr %4, align 8
  %9 = icmp eq ptr %8, null
  br i1 %9, label %10, label %11

10:                                               ; preds = %2
  store ptr null, ptr %3, align 8
  store i32 1, ptr %7, align 4
  br label %21

11:                                               ; preds = %2
  %12 = load ptr, ptr %4, align 8
  %13 = load ptr, ptr %5, align 8
  %14 = call ptr @get_ENR(ptr noundef %12, ptr noundef %13)
  store ptr %14, ptr %6, align 8
  %15 = load ptr, ptr %6, align 8
  %16 = icmp ne ptr %15, null
  br i1 %16, label %17, label %20

17:                                               ; preds = %11
  %18 = load ptr, ptr %6, align 8
  %19 = getelementptr inbounds nuw %struct.EphemeralNamedRelationData, ptr %18, i32 0, i32 0
  store ptr %19, ptr %3, align 8
  store i32 1, ptr %7, align 4
  br label %21

20:                                               ; preds = %11
  store ptr null, ptr %3, align 8
  store i32 1, ptr %7, align 4
  br label %21

21:                                               ; preds = %20, %17, %10
  call void @llvm.lifetime.end.p0(i64 8, ptr %6) #5
  %22 = load ptr, ptr %3, align 8
  ret ptr %22
}

; Function Attrs: nocallback nofree nosync nounwind willreturn memory(argmem: readwrite)
declare void @llvm.lifetime.start.p0(i64 immarg, ptr captures(none)) #2

; Function Attrs: nounwind uwtable
define dso_local ptr @get_ENR(ptr noundef %0, ptr noundef %1) #0 {
  %3 = alloca ptr, align 8
  %4 = alloca ptr, align 8
  %5 = alloca ptr, align 8
  %6 = alloca ptr, align 8
  %7 = alloca i32, align 4
  %8 = alloca %struct.ForEachState, align 8
  %9 = alloca ptr, align 8
  store ptr %0, ptr %4, align 8
  store ptr %1, ptr %5, align 8
  call void @llvm.lifetime.start.p0(i64 8, ptr %6) #5
  %10 = load ptr, ptr %4, align 8
  %11 = icmp eq ptr %10, null
  br i1 %11, label %12, label %13

12:                                               ; preds = %2
  store ptr null, ptr %3, align 8
  store i32 1, ptr %7, align 4
  br label %69

13:                                               ; preds = %2
  call void @llvm.lifetime.start.p0(i64 16, ptr %8) #5
  %14 = getelementptr inbounds nuw %struct.ForEachState, ptr %8, i32 0, i32 0
  %15 = load ptr, ptr %4, align 8
  %16 = getelementptr inbounds nuw %struct.QueryEnvironment, ptr %15, i32 0, i32 0
  %17 = load ptr, ptr %16, align 8
  store ptr %17, ptr %14, align 8
  %18 = getelementptr inbounds nuw %struct.ForEachState, ptr %8, i32 0, i32 1
  store i32 0, ptr %18, align 8
  %19 = getelementptr i8, ptr %8, i64 12
  call void @llvm.memset.p0.i64(ptr align 4 %19, i8 0, i64 4, i1 false)
  br label %20

20:                                               ; preds = %62, %13
  %21 = getelementptr inbounds nuw %struct.ForEachState, ptr %8, i32 0, i32 0
  %22 = load ptr, ptr %21, align 8
  %23 = icmp ne ptr %22, null
  br i1 %23, label %24, label %41

24:                                               ; preds = %20
  %25 = getelementptr inbounds nuw %struct.ForEachState, ptr %8, i32 0, i32 1
  %26 = load i32, ptr %25, align 8
  %27 = getelementptr inbounds nuw %struct.ForEachState, ptr %8, i32 0, i32 0
  %28 = load ptr, ptr %27, align 8
  %29 = getelementptr inbounds nuw %struct.List, ptr %28, i32 0, i32 1
  %30 = load i32, ptr %29, align 4
  %31 = icmp slt i32 %26, %30
  br i1 %31, label %32, label %41

32:                                               ; preds = %24
  %33 = getelementptr inbounds nuw %struct.ForEachState, ptr %8, i32 0, i32 0
  %34 = load ptr, ptr %33, align 8
  %35 = getelementptr inbounds nuw %struct.List, ptr %34, i32 0, i32 3
  %36 = load ptr, ptr %35, align 8
  %37 = getelementptr inbounds nuw %struct.ForEachState, ptr %8, i32 0, i32 1
  %38 = load i32, ptr %37, align 8
  %39 = sext i32 %38 to i64
  %40 = getelementptr inbounds %union.ListCell, ptr %36, i64 %39
  store ptr %40, ptr %6, align 8
  br label %42

41:                                               ; preds = %24, %20
  store ptr null, ptr %6, align 8
  br label %42

42:                                               ; preds = %41, %32
  %43 = phi i32 [ 1, %32 ], [ 0, %41 ]
  %44 = icmp ne i32 %43, 0
  br i1 %44, label %46, label %45

45:                                               ; preds = %42
  store i32 2, ptr %7, align 4
  br label %66

46:                                               ; preds = %42
  call void @llvm.lifetime.start.p0(i64 8, ptr %9) #5
  %47 = load ptr, ptr %6, align 8
  %48 = load ptr, ptr %47, align 8
  store ptr %48, ptr %9, align 8
  %49 = load ptr, ptr %9, align 8
  %50 = getelementptr inbounds nuw %struct.EphemeralNamedRelationData, ptr %49, i32 0, i32 0
  %51 = getelementptr inbounds nuw %struct.EphemeralNamedRelationMetadataData, ptr %50, i32 0, i32 0
  %52 = load ptr, ptr %51, align 8
  %53 = load ptr, ptr %5, align 8
  %54 = call i32 @strcmp(ptr noundef %52, ptr noundef %53) #6
  %55 = icmp eq i32 %54, 0
  br i1 %55, label %56, label %58

56:                                               ; preds = %46
  %57 = load ptr, ptr %9, align 8
  store ptr %57, ptr %3, align 8
  store i32 1, ptr %7, align 4
  br label %59

58:                                               ; preds = %46
  store i32 0, ptr %7, align 4
  br label %59

59:                                               ; preds = %58, %56
  call void @llvm.lifetime.end.p0(i64 8, ptr %9) #5
  %60 = load i32, ptr %7, align 4
  switch i32 %60, label %66 [
    i32 0, label %61
  ]

61:                                               ; preds = %59
  br label %62

62:                                               ; preds = %61
  %63 = getelementptr inbounds nuw %struct.ForEachState, ptr %8, i32 0, i32 1
  %64 = load i32, ptr %63, align 8
  %65 = add i32 %64, 1
  store i32 %65, ptr %63, align 8
  br label %20, !llvm.loop !4

66:                                               ; preds = %59, %45
  call void @llvm.lifetime.end.p0(i64 16, ptr %8) #5
  %67 = load i32, ptr %7, align 4
  switch i32 %67, label %69 [
    i32 2, label %68
  ]

68:                                               ; preds = %66
  store ptr null, ptr %3, align 8
  store i32 1, ptr %7, align 4
  br label %69

69:                                               ; preds = %68, %66, %12
  call void @llvm.lifetime.end.p0(i64 8, ptr %6) #5
  %70 = load ptr, ptr %3, align 8
  ret ptr %70
}

; Function Attrs: nocallback nofree nosync nounwind willreturn memory(argmem: readwrite)
declare void @llvm.lifetime.end.p0(i64 immarg, ptr captures(none)) #2

; Function Attrs: nounwind uwtable
define dso_local void @register_ENR(ptr noundef %0, ptr noundef %1) #0 {
  %3 = alloca ptr, align 8
  %4 = alloca ptr, align 8
  store ptr %0, ptr %3, align 8
  store ptr %1, ptr %4, align 8
  %5 = load ptr, ptr %3, align 8
  %6 = getelementptr inbounds nuw %struct.QueryEnvironment, ptr %5, i32 0, i32 0
  %7 = load ptr, ptr %6, align 8
  %8 = load ptr, ptr %4, align 8
  %9 = call ptr @lappend(ptr noundef %7, ptr noundef %8)
  %10 = load ptr, ptr %3, align 8
  %11 = getelementptr inbounds nuw %struct.QueryEnvironment, ptr %10, i32 0, i32 0
  store ptr %9, ptr %11, align 8
  ret void
}

declare ptr @lappend(ptr noundef, ptr noundef) #1

; Function Attrs: nounwind uwtable
define dso_local void @unregister_ENR(ptr noundef %0, ptr noundef %1) #0 {
  %3 = alloca ptr, align 8
  %4 = alloca ptr, align 8
  %5 = alloca ptr, align 8
  store ptr %0, ptr %3, align 8
  store ptr %1, ptr %4, align 8
  call void @llvm.lifetime.start.p0(i64 8, ptr %5) #5
  %6 = load ptr, ptr %3, align 8
  %7 = load ptr, ptr %4, align 8
  %8 = call ptr @get_ENR(ptr noundef %6, ptr noundef %7)
  store ptr %8, ptr %5, align 8
  %9 = load ptr, ptr %5, align 8
  %10 = icmp ne ptr %9, null
  br i1 %10, label %11, label %19

11:                                               ; preds = %2
  %12 = load ptr, ptr %3, align 8
  %13 = getelementptr inbounds nuw %struct.QueryEnvironment, ptr %12, i32 0, i32 0
  %14 = load ptr, ptr %13, align 8
  %15 = load ptr, ptr %5, align 8
  %16 = call ptr @list_delete(ptr noundef %14, ptr noundef %15)
  %17 = load ptr, ptr %3, align 8
  %18 = getelementptr inbounds nuw %struct.QueryEnvironment, ptr %17, i32 0, i32 0
  store ptr %16, ptr %18, align 8
  br label %19

19:                                               ; preds = %11, %2
  call void @llvm.lifetime.end.p0(i64 8, ptr %5) #5
  ret void
}

declare ptr @list_delete(ptr noundef, ptr noundef) #1

; Function Attrs: nocallback nofree nounwind willreturn memory(argmem: write)
declare void @llvm.memset.p0.i64(ptr writeonly captures(none), i8, i64, i1 immarg) #3

; Function Attrs: nounwind willreturn memory(read)
declare i32 @strcmp(ptr noundef, ptr noundef) #4

; Function Attrs: nounwind uwtable
define dso_local ptr @ENRMetadataGetTupDesc(ptr noundef %0) #0 {
  %2 = alloca ptr, align 8
  %3 = alloca ptr, align 8
  %4 = alloca ptr, align 8
  store ptr %0, ptr %2, align 8
  call void @llvm.lifetime.start.p0(i64 8, ptr %3) #5
  %5 = load ptr, ptr %2, align 8
  %6 = getelementptr inbounds nuw %struct.EphemeralNamedRelationMetadataData, ptr %5, i32 0, i32 2
  %7 = load ptr, ptr %6, align 8
  %8 = icmp ne ptr %7, null
  br i1 %8, label %9, label %13

9:                                                ; preds = %1
  %10 = load ptr, ptr %2, align 8
  %11 = getelementptr inbounds nuw %struct.EphemeralNamedRelationMetadataData, ptr %10, i32 0, i32 2
  %12 = load ptr, ptr %11, align 8
  store ptr %12, ptr %3, align 8
  br label %22

13:                                               ; preds = %1
  call void @llvm.lifetime.start.p0(i64 8, ptr %4) #5
  %14 = load ptr, ptr %2, align 8
  %15 = getelementptr inbounds nuw %struct.EphemeralNamedRelationMetadataData, ptr %14, i32 0, i32 1
  %16 = load i32, ptr %15, align 8
  %17 = call ptr @table_open(i32 noundef %16, i32 noundef 0)
  store ptr %17, ptr %4, align 8
  %18 = load ptr, ptr %4, align 8
  %19 = getelementptr inbounds nuw %struct.RelationData, ptr %18, i32 0, i32 14
  %20 = load ptr, ptr %19, align 8
  store ptr %20, ptr %3, align 8
  %21 = load ptr, ptr %4, align 8
  call void @table_close(ptr noundef %21, i32 noundef 0)
  call void @llvm.lifetime.end.p0(i64 8, ptr %4) #5
  br label %22

22:                                               ; preds = %13, %9
  %23 = load ptr, ptr %3, align 8
  call void @llvm.lifetime.end.p0(i64 8, ptr %3) #5
  ret ptr %23
}

declare ptr @table_open(i32 noundef, i32 noundef) #1

declare void @table_close(ptr noundef, i32 noundef) #1


!llvm.module.flags = !{!0, !1, !2, !3}

!0 = !{i32 1, !"wchar_size", i32 4}
!1 = !{i32 8, !"PIC Level", i32 2}
!2 = !{i32 7, !"PIE Level", i32 2}
!3 = !{i32 7, !"uwtable", i32 2}
!4 = distinct !{!4, !5}
!5 = !{!"llvm.loop.mustprogress"}
